(i__main__
LogFile
p0
(dp1
S'_installed_files'
p2
(dp3
S'../SamplingSvc/python'
p4
(dp5
S'../../../SamplingSvc/python/SampingSvc/__init__.py'
p6
S'../../InstallArea/python/SampingSvc/__init__.py'
p7
ssS'../../../SamplingSvc/amd64_linux26/libSamplingSvc.so'
p8
S'../../InstallArea/amd64_linux26/lib/libSamplingSvc.so'
p9
sS'../../SamplingSvc/SamplingSvc'
p10
(dp11
S'../../../SamplingSvc/SamplingSvc/SamplingSvc.h'
p12
S'../../InstallArea/include/SamplingSvc/SamplingSvc.h'
p13
ssS'../../FirstSvc/FirstSvc'
p14
(dp15
S'../../../FirstSvc/FirstSvc/FirstSvc.h'
p16
S'../../InstallArea/include/FirstSvc/FirstSvc.h'
p17
ssS'../../../FirstSvc/amd64_linux26/libFirstSvc.so'
p18
S'../../InstallArea/amd64_linux26/lib/libFirstSvc.so'
p19
ssb.